target datalayout = "e-m:e-p270:32:32-p271:32:32-p272:64:64-i64:64-i128:128-f80:128-n8:16:32:64-S128"
target triple = "x86_64-pc-linux-gnu"

%struct.__storeu_si128 = type { <2 x i64> }
%struct.__mm_loadl_epi64_struct = type { i64 }

; Function Attrs: alwaysinline nounwind uwtable
define internal void @_mm_storeu_si128(ptr noundef %0, <2 x i64> noundef %1) #3 {
  %3 = alloca ptr, align 8
  %4 = alloca <2 x i64>, align 16
  store ptr %0, ptr %3, align 8, !tbaa !3
  store <2 x i64> %1, ptr %4, align 16, !tbaa !11
  %5 = load <2 x i64>, ptr %4, align 16, !tbaa !11
  %6 = load ptr, ptr %3, align 8, !tbaa !3
  %7 = getelementptr inbounds nuw %struct.__storeu_si128, ptr %6, i32 0, i32 0
  store <2 x i64> %5, ptr %7, align 1, !tbaa !11
  ret void
}

; Function Attrs: alwaysinline nounwind uwtable
define internal <2 x i64> @_mm_add_epi32(<2 x i64> noundef %0, <2 x i64> noundef %1) #3 {
  %3 = alloca <2 x i64>, align 16
  %4 = alloca <2 x i64>, align 16
  store <2 x i64> %0, ptr %3, align 16, !tbaa !11
  store <2 x i64> %1, ptr %4, align 16, !tbaa !11
  %5 = load <2 x i64>, ptr %3, align 16, !tbaa !11
  %6 = bitcast <2 x i64> %5 to <4 x i32>
  %7 = load <2 x i64>, ptr %4, align 16, !tbaa !11
  %8 = bitcast <2 x i64> %7 to <4 x i32>
  %9 = add <4 x i32> %6, %8
  %10 = bitcast <4 x i32> %9 to <2 x i64>
  ret <2 x i64> %10
}

; Function Attrs: alwaysinline nounwind uwtable
define internal <2 x i64> @_mm_madd_epi16(<2 x i64> noundef %0, <2 x i64> noundef %1) #3 {
  %3 = alloca <2 x i64>, align 16
  %4 = alloca <2 x i64>, align 16
  store <2 x i64> %0, ptr %3, align 16, !tbaa !11
  store <2 x i64> %1, ptr %4, align 16, !tbaa !11
  %5 = load <2 x i64>, ptr %3, align 16, !tbaa !11
  %6 = bitcast <2 x i64> %5 to <8 x i16>
  %7 = load <2 x i64>, ptr %4, align 16, !tbaa !11
  %8 = bitcast <2 x i64> %7 to <8 x i16>
  %9 = call <4 x i32> @llvm.x86.sse2.pmadd.wd(<8 x i16> %6, <8 x i16> %8)
  %10 = bitcast <4 x i32> %9 to <2 x i64>
  ret <2 x i64> %10
}

; Function Attrs: alwaysinline nounwind uwtable
define internal <2 x i64> @_mm_subs_epi16(<2 x i64> noundef %0, <2 x i64> noundef %1) #3 {
  %3 = alloca <2 x i64>, align 16
  %4 = alloca <2 x i64>, align 16
  store <2 x i64> %0, ptr %3, align 16, !tbaa !11
  store <2 x i64> %1, ptr %4, align 16, !tbaa !11
  %5 = load <2 x i64>, ptr %3, align 16, !tbaa !11
  %6 = bitcast <2 x i64> %5 to <8 x i16>
  %7 = load <2 x i64>, ptr %4, align 16, !tbaa !11
  %8 = bitcast <2 x i64> %7 to <8 x i16>
  %9 = call <8 x i16> @llvm.ssub.sat.v8i16(<8 x i16> %6, <8 x i16> %8)
  %10 = bitcast <8 x i16> %9 to <2 x i64>
  ret <2 x i64> %10
}

; Function Attrs: alwaysinline nounwind uwtable
define internal <2 x i64> @_mm_unpacklo_epi8(<2 x i64> noundef %0, <2 x i64> noundef %1) #3 {
  %3 = alloca <2 x i64>, align 16
  %4 = alloca <2 x i64>, align 16
  store <2 x i64> %0, ptr %3, align 16, !tbaa !11
  store <2 x i64> %1, ptr %4, align 16, !tbaa !11
  %5 = load <2 x i64>, ptr %3, align 16, !tbaa !11
  %6 = bitcast <2 x i64> %5 to <16 x i8>
  %7 = load <2 x i64>, ptr %4, align 16, !tbaa !11
  %8 = bitcast <2 x i64> %7 to <16 x i8>
  %9 = shufflevector <16 x i8> %6, <16 x i8> %8, <16 x i32> <i32 0, i32 16, i32 1, i32 17, i32 2, i32 18, i32 3, i32 19, i32 4, i32 20, i32 5, i32 21, i32 6, i32 22, i32 7, i32 23>
  %10 = bitcast <16 x i8> %9 to <2 x i64>
  ret <2 x i64> %10
}

; Function Attrs: alwaysinline nounwind uwtable
define internal <2 x i64> @_mm_loadl_epi64(ptr noundef %0) #3 {
  %2 = alloca ptr, align 8
  %3 = alloca <2 x i64>, align 16
  store ptr %0, ptr %2, align 8, !tbaa !3
  %4 = load ptr, ptr %2, align 8, !tbaa !3
  %5 = getelementptr inbounds nuw %struct.__mm_loadl_epi64_struct, ptr %4, i32 0, i32 0
  %6 = load i64, ptr %5, align 1, !tbaa !11
  %7 = insertelement <2 x i64> poison, i64 %6, i32 0
  %8 = insertelement <2 x i64> %7, i64 0, i32 1
  store <2 x i64> %8, ptr %3, align 16, !tbaa !11
  %9 = load <2 x i64>, ptr %3, align 16, !tbaa !11
  ret <2 x i64> %9
}

; Function Attrs: alwaysinline nounwind uwtable
define internal <2 x i64> @_mm_setzero_si128() #3 {
  %1 = alloca <2 x i64>, align 16
  store <2 x i64> zeroinitializer, ptr %1, align 16, !tbaa !11
  %2 = load <2 x i64>, ptr %1, align 16, !tbaa !11
  ret <2 x i64> %2
}

; Function Attrs: nounwind uwtable
define internal i32 @SSE8x8_SSE2(ptr noalias noundef %0, ptr noalias noundef %1) #1 {
  %3 = alloca ptr, align 8
  %4 = alloca ptr, align 8
  %5 = alloca <2 x i64>, align 16
  %6 = alloca i32, align 4
  %7 = alloca <2 x i64>, align 16
  %8 = alloca [4 x i32], align 16
  %9 = alloca <2 x i64>, align 16
  %10 = alloca <2 x i64>, align 16
  %11 = alloca <2 x i64>, align 16
  %12 = alloca <2 x i64>, align 16
  %13 = alloca <2 x i64>, align 16
  %14 = alloca <2 x i64>, align 16
  %15 = alloca <2 x i64>, align 16
  %16 = alloca <2 x i64>, align 16
  %17 = alloca <2 x i64>, align 16
  store ptr %0, ptr %3, align 8, !tbaa !7
  store ptr %1, ptr %4, align 8, !tbaa !7
  call void @llvm.lifetime.start.p0(i64 16, ptr %5) #11
  %18 = call <2 x i64> @_mm_setzero_si128()
  store <2 x i64> %18, ptr %5, align 16, !tbaa !11
  call void @llvm.lifetime.start.p0(i64 4, ptr %6) #11
  store i32 4, ptr %6, align 4, !tbaa !9
  call void @llvm.lifetime.start.p0(i64 16, ptr %7) #11
  %19 = load <2 x i64>, ptr %5, align 16, !tbaa !11
  store <2 x i64> %19, ptr %7, align 16, !tbaa !11
  call void @llvm.lifetime.start.p0(i64 16, ptr %8) #11
  br label %20

20:                                               ; preds = %24, %2
  %21 = load i32, ptr %6, align 4, !tbaa !9
  %22 = add nsw i32 %21, -1
  store i32 %22, ptr %6, align 4, !tbaa !9
  %23 = icmp sgt i32 %21, 0
  br i1 %23, label %24, label %67

24:                                               ; preds = %20
  call void @llvm.lifetime.start.p0(i64 16, ptr %9) #11
  %25 = load ptr, ptr %3, align 8, !tbaa !7
  %26 = getelementptr inbounds i8, ptr %25, i64 0
  %27 = call <2 x i64> @_mm_loadl_epi64(ptr noundef %26)
  %28 = load <2 x i64>, ptr %5, align 16, !tbaa !11
  %29 = call <2 x i64> @_mm_unpacklo_epi8(<2 x i64> noundef %27, <2 x i64> noundef %28)
  store <2 x i64> %29, ptr %9, align 16, !tbaa !11
  call void @llvm.lifetime.start.p0(i64 16, ptr %10) #11
  %30 = load ptr, ptr %3, align 8, !tbaa !7
  %31 = getelementptr inbounds i8, ptr %30, i64 32
  %32 = call <2 x i64> @_mm_loadl_epi64(ptr noundef %31)
  %33 = load <2 x i64>, ptr %5, align 16, !tbaa !11
  %34 = call <2 x i64> @_mm_unpacklo_epi8(<2 x i64> noundef %32, <2 x i64> noundef %33)
  store <2 x i64> %34, ptr %10, align 16, !tbaa !11
  call void @llvm.lifetime.start.p0(i64 16, ptr %11) #11
  %35 = load ptr, ptr %4, align 8, !tbaa !7
  %36 = getelementptr inbounds i8, ptr %35, i64 0
  %37 = call <2 x i64> @_mm_loadl_epi64(ptr noundef %36)
  %38 = load <2 x i64>, ptr %5, align 16, !tbaa !11
  %39 = call <2 x i64> @_mm_unpacklo_epi8(<2 x i64> noundef %37, <2 x i64> noundef %38)
  store <2 x i64> %39, ptr %11, align 16, !tbaa !11
  call void @llvm.lifetime.start.p0(i64 16, ptr %12) #11
  %40 = load ptr, ptr %4, align 8, !tbaa !7
  %41 = getelementptr inbounds i8, ptr %40, i64 32
  %42 = call <2 x i64> @_mm_loadl_epi64(ptr noundef %41)
  %43 = load <2 x i64>, ptr %5, align 16, !tbaa !11
  %44 = call <2 x i64> @_mm_unpacklo_epi8(<2 x i64> noundef %42, <2 x i64> noundef %43)
  store <2 x i64> %44, ptr %12, align 16, !tbaa !11
  call void @llvm.lifetime.start.p0(i64 16, ptr %13) #11
  %45 = load <2 x i64>, ptr %9, align 16, !tbaa !11
  %46 = load <2 x i64>, ptr %11, align 16, !tbaa !11
  %47 = call <2 x i64> @_mm_subs_epi16(<2 x i64> noundef %45, <2 x i64> noundef %46)
  store <2 x i64> %47, ptr %13, align 16, !tbaa !11
  call void @llvm.lifetime.start.p0(i64 16, ptr %14) #11
  %48 = load <2 x i64>, ptr %10, align 16, !tbaa !11
  %49 = load <2 x i64>, ptr %12, align 16, !tbaa !11
  %50 = call <2 x i64> @_mm_subs_epi16(<2 x i64> noundef %48, <2 x i64> noundef %49)
  store <2 x i64> %50, ptr %14, align 16, !tbaa !11
  call void @llvm.lifetime.start.p0(i64 16, ptr %15) #11
  %51 = load <2 x i64>, ptr %13, align 16, !tbaa !11
  %52 = load <2 x i64>, ptr %13, align 16, !tbaa !11
  %53 = call <2 x i64> @_mm_madd_epi16(<2 x i64> noundef %51, <2 x i64> noundef %52)
  store <2 x i64> %53, ptr %15, align 16, !tbaa !11
  call void @llvm.lifetime.start.p0(i64 16, ptr %16) #11
  %54 = load <2 x i64>, ptr %14, align 16, !tbaa !11
  %55 = load <2 x i64>, ptr %14, align 16, !tbaa !11
  %56 = call <2 x i64> @_mm_madd_epi16(<2 x i64> noundef %54, <2 x i64> noundef %55)
  store <2 x i64> %56, ptr %16, align 16, !tbaa !11
  call void @llvm.lifetime.start.p0(i64 16, ptr %17) #11
  %57 = load <2 x i64>, ptr %15, align 16, !tbaa !11
  %58 = load <2 x i64>, ptr %16, align 16, !tbaa !11
  %59 = call <2 x i64> @_mm_add_epi32(<2 x i64> noundef %57, <2 x i64> noundef %58)
  store <2 x i64> %59, ptr %17, align 16, !tbaa !11
  %60 = load <2 x i64>, ptr %7, align 16, !tbaa !11
  %61 = load <2 x i64>, ptr %17, align 16, !tbaa !11
  %62 = call <2 x i64> @_mm_add_epi32(<2 x i64> noundef %60, <2 x i64> noundef %61)
  store <2 x i64> %62, ptr %7, align 16, !tbaa !11
  %63 = load ptr, ptr %3, align 8, !tbaa !7
  %64 = getelementptr inbounds i8, ptr %63, i64 64
  store ptr %64, ptr %3, align 8, !tbaa !7
  %65 = load ptr, ptr %4, align 8, !tbaa !7
  %66 = getelementptr inbounds i8, ptr %65, i64 64
  store ptr %66, ptr %4, align 8, !tbaa !7
  call void @llvm.lifetime.end.p0(i64 16, ptr %17) #11
  call void @llvm.lifetime.end.p0(i64 16, ptr %16) #11
  call void @llvm.lifetime.end.p0(i64 16, ptr %15) #11
  call void @llvm.lifetime.end.p0(i64 16, ptr %14) #11
  call void @llvm.lifetime.end.p0(i64 16, ptr %13) #11
  call void @llvm.lifetime.end.p0(i64 16, ptr %12) #11
  call void @llvm.lifetime.end.p0(i64 16, ptr %11) #11
  call void @llvm.lifetime.end.p0(i64 16, ptr %10) #11
  call void @llvm.lifetime.end.p0(i64 16, ptr %9) #11
  br label %20, !llvm.loop !21

67:                                               ; preds = %20
  %68 = getelementptr inbounds [4 x i32], ptr %8, i64 0, i64 0
  %69 = load <2 x i64>, ptr %7, align 16, !tbaa !11
  call void @_mm_storeu_si128(ptr noundef %68, <2 x i64> noundef %69)
  %70 = getelementptr inbounds [4 x i32], ptr %8, i64 0, i64 3
  %71 = load i32, ptr %70, align 4, !tbaa !9
  %72 = getelementptr inbounds [4 x i32], ptr %8, i64 0, i64 2
  %73 = load i32, ptr %72, align 8, !tbaa !9
  %74 = add nsw i32 %71, %73
  %75 = getelementptr inbounds [4 x i32], ptr %8, i64 0, i64 1
  %76 = load i32, ptr %75, align 4, !tbaa !9
  %77 = add nsw i32 %74, %76
  %78 = getelementptr inbounds [4 x i32], ptr %8, i64 0, i64 0
  %79 = load i32, ptr %78, align 16, !tbaa !9
  %80 = add nsw i32 %77, %79
  call void @llvm.lifetime.end.p0(i64 16, ptr %8) #11
  call void @llvm.lifetime.end.p0(i64 16, ptr %7) #11
  call void @llvm.lifetime.end.p0(i64 4, ptr %6) #11
  call void @llvm.lifetime.end.p0(i64 16, ptr %5) #11
  ret i32 %80
}