; Function Attrs: nofree norecurse nosync nounwind memory(argmem: read) uwtable
define internal i32 @SSE8x8_SSE2(ptr noalias noundef readonly captures(none) %0, ptr noalias noundef readonly captures(none) %1) #7 {
  br label %3

3:                                                ; preds = %2, %3
  %.030 = phi ptr [ %0, %2 ], [ %34, %3 ]
  %.02429 = phi ptr [ %1, %2 ], [ %35, %3 ]
  %.02528 = phi i32 [ 4, %2 ], [ %5, %3 ]
  %4 = phi <4 x i32> [ zeroinitializer, %2 ], [ %33, %3 ]
  %5 = add nsw i32 %.02528, -1
  %6 = load i64, ptr %.030, align 1, !tbaa !14
  %7 = insertelement <2 x i64> poison, i64 %6, i64 0
  %8 = bitcast <2 x i64> %7 to <16 x i8>
  %9 = shufflevector <16 x i8> %8, <16 x i8> <i8 0, i8 0, i8 0, i8 0, i8 0, i8 0, i8 0, i8 0, i8 poison, i8 poison, i8 poison, i8 poison, i8 poison, i8 poison, i8 poison, i8 poison>, <16 x i32> <i32 0, i32 16, i32 1, i32 17, i32 2, i32 18, i32 3, i32 19, i32 4, i32 20, i32 5, i32 21, i32 6, i32 22, i32 7, i32 23>
  %10 = getelementptr inbounds nuw i8, ptr %.030, i64 32
  %11 = load i64, ptr %10, align 1, !tbaa !14
  %12 = insertelement <2 x i64> poison, i64 %11, i64 0
  %13 = bitcast <2 x i64> %12 to <16 x i8>
  %14 = shufflevector <16 x i8> %13, <16 x i8> <i8 0, i8 0, i8 0, i8 0, i8 0, i8 0, i8 0, i8 0, i8 poison, i8 poison, i8 poison, i8 poison, i8 poison, i8 poison, i8 poison, i8 poison>, <16 x i32> <i32 0, i32 16, i32 1, i32 17, i32 2, i32 18, i32 3, i32 19, i32 4, i32 20, i32 5, i32 21, i32 6, i32 22, i32 7, i32 23>
  %15 = load i64, ptr %.02429, align 1, !tbaa !14
  %16 = insertelement <2 x i64> poison, i64 %15, i64 0
  %17 = bitcast <2 x i64> %16 to <16 x i8>
  %18 = shufflevector <16 x i8> %17, <16 x i8> <i8 0, i8 0, i8 0, i8 0, i8 0, i8 0, i8 0, i8 0, i8 poison, i8 poison, i8 poison, i8 poison, i8 poison, i8 poison, i8 poison, i8 poison>, <16 x i32> <i32 0, i32 16, i32 1, i32 17, i32 2, i32 18, i32 3, i32 19, i32 4, i32 20, i32 5, i32 21, i32 6, i32 22, i32 7, i32 23>
  %19 = getelementptr inbounds nuw i8, ptr %.02429, i64 32
  %20 = load i64, ptr %19, align 1, !tbaa !14
  %21 = insertelement <2 x i64> poison, i64 %20, i64 0
  %22 = bitcast <2 x i64> %21 to <16 x i8>
  %23 = shufflevector <16 x i8> %22, <16 x i8> <i8 0, i8 0, i8 0, i8 0, i8 0, i8 0, i8 0, i8 0, i8 poison, i8 poison, i8 poison, i8 poison, i8 poison, i8 poison, i8 poison, i8 poison>, <16 x i32> <i32 0, i32 16, i32 1, i32 17, i32 2, i32 18, i32 3, i32 19, i32 4, i32 20, i32 5, i32 21, i32 6, i32 22, i32 7, i32 23>
  %24 = bitcast <16 x i8> %9 to <8 x i16>
  %25 = bitcast <16 x i8> %18 to <8 x i16>
  %26 = sub nsw <8 x i16> %24, %25
  %27 = bitcast <16 x i8> %14 to <8 x i16>
  %28 = bitcast <16 x i8> %23 to <8 x i16>
  %29 = sub nsw <8 x i16> %27, %28
  %30 = tail call <4 x i32> @llvm.x86.sse2.pmadd.wd(<8 x i16> %26, <8 x i16> %26)
  %31 = tail call <4 x i32> @llvm.x86.sse2.pmadd.wd(<8 x i16> %29, <8 x i16> %29)
  %32 = add <4 x i32> %30, %4
  %33 = add <4 x i32> %32, %31
  %34 = getelementptr inbounds nuw i8, ptr %.030, i64 64
  %35 = getelementptr inbounds nuw i8, ptr %.02429, i64 64
  %36 = icmp ugt i32 %.02528, 1
  br i1 %36, label %3, label %37, !llvm.loop !409

37:                                               ; preds = %3
  %38 = shufflevector <4 x i32> %33, <4 x i32> poison, <4 x i32> <i32 3, i32 poison, i32 poison, i32 poison>
  %39 = shufflevector <4 x i32> %33, <4 x i32> poison, <4 x i32> <i32 2, i32 poison, i32 poison, i32 poison>
  %40 = add nsw <4 x i32> %38, %39
  %41 = shufflevector <4 x i32> %33, <4 x i32> poison, <4 x i32> <i32 1, i32 poison, i32 poison, i32 poison>
  %shift32 = add nsw <4 x i32> %40, %41
  %42 = add nsw <4 x i32> %shift32, %33
  %43 = extractelement <4 x i32> %42, i64 0
  ret i32 %43
}